; Function Attrs: mustprogress nounwind uwtable
define internal void @_ZN12_GLOBAL__N_112EnumArgumentD2Ev(ptr noundef nonnull align 8 dereferenceable(218) %0) unnamed_addr #0 align 2 {
  store ptr getelementptr inbounds inrange(-16, 200) (i8, ptr @_ZTVN12_GLOBAL__N_112EnumArgumentE, i64 16), ptr %0, align 8
  %2 = getelementptr inbounds nuw i8, ptr %0, i64 192
  %3 = load ptr, ptr %2, align 8
  %.not.i.i.i = icmp eq ptr %3, null
  br i1 %.not.i.i.i, label %_ZNSt6vectorIN4llvm9StringRefESaIS1_EED2Ev.exit, label %4

4:                                                ; preds = %1
  %5 = getelementptr inbounds i8, ptr %0, i64 208
  %6 = load ptr, ptr %5, align 8
  %7 = ptrtoint ptr %6 to i64
  %8 = ptrtoint ptr %3 to i64
  %9 = sub i64 %7, %8
  tail call void @_ZdlPvm(ptr noundef nonnull %3, i64 noundef %9) #26
  br label %_ZNSt6vectorIN4llvm9StringRefESaIS1_EED2Ev.exit

_ZNSt6vectorIN4llvm9StringRefESaIS1_EED2Ev.exit:  ; preds = %1, %4
  %10 = getelementptr inbounds nuw i8, ptr %0, i64 168
  %11 = load ptr, ptr %10, align 8
  %.not.i.i.i1 = icmp eq ptr %11, null
  br i1 %.not.i.i.i1, label %_ZNSt6vectorIN4llvm9StringRefESaIS1_EED2Ev.exit2, label %12

12:                                               ; preds = %_ZNSt6vectorIN4llvm9StringRefESaIS1_EED2Ev.exit
  %13 = getelementptr inbounds i8, ptr %0, i64 184
  %14 = load ptr, ptr %13, align 8
  %15 = ptrtoint ptr %14 to i64
  %16 = ptrtoint ptr %11 to i64
  %17 = sub i64 %15, %16
  tail call void @_ZdlPvm(ptr noundef nonnull %11, i64 noundef %17) #26
  br label %_ZNSt6vectorIN4llvm9StringRefESaIS1_EED2Ev.exit2

_ZNSt6vectorIN4llvm9StringRefESaIS1_EED2Ev.exit2: ; preds = %_ZNSt6vectorIN4llvm9StringRefESaIS1_EED2Ev.exit, %12
  %18 = getelementptr inbounds nuw i8, ptr %0, i64 144
  %19 = load ptr, ptr %18, align 8
  %.not.i.i.i3 = icmp eq ptr %19, null
  br i1 %.not.i.i.i3, label %_ZNSt6vectorIN4llvm9StringRefESaIS1_EED2Ev.exit4, label %20

20:                                               ; preds = %_ZNSt6vectorIN4llvm9StringRefESaIS1_EED2Ev.exit2
  %21 = getelementptr inbounds i8, ptr %0, i64 160
  %22 = load ptr, ptr %21, align 8
  %23 = ptrtoint ptr %22 to i64
  %24 = ptrtoint ptr %19 to i64
  %25 = sub i64 %23, %24
  tail call void @_ZdlPvm(ptr noundef nonnull %19, i64 noundef %25) #26
  br label %_ZNSt6vectorIN4llvm9StringRefESaIS1_EED2Ev.exit4

_ZNSt6vectorIN4llvm9StringRefESaIS1_EED2Ev.exit4: ; preds = %_ZNSt6vectorIN4llvm9StringRefESaIS1_EED2Ev.exit2, %20
  %26 = getelementptr inbounds nuw i8, ptr %0, i64 96
  tail call void @_ZNSt7__cxx1112basic_stringIcSt11char_traitsIcESaIcEED1Ev(ptr noundef nonnull align 8 dereferenceable(32) %26) #22
  store ptr getelementptr inbounds inrange(-16, 200) (i8, ptr @_ZTVN12_GLOBAL__N_18ArgumentE, i64 16), ptr %0, align 8
  %27 = getelementptr inbounds nuw i8, ptr %0, i64 40
  tail call void @_ZNSt7__cxx1112basic_stringIcSt11char_traitsIcESaIcEED1Ev(ptr noundef nonnull align 8 dereferenceable(32) %27) #22
  %28 = getelementptr inbounds nuw i8, ptr %0, i64 8
  tail call void @_ZNSt7__cxx1112basic_stringIcSt11char_traitsIcESaIcEED1Ev(ptr noundef nonnull align 8 dereferenceable(32) %28) #22
  ret void
}